target datalayout = "e-m:e-p270:32:32-p271:32:32-p272:64:64-i64:64-i128:128-f80:128-n8:16:32:64-S128"
target triple = "x86_64-pc-linux-gnu"

%struct._dcerpc_info = type { ptr, i32, i64, i8, i8, i8, i32, i32, i32, i32, i32, i32, i32, i32, ptr, ptr, ptr, ptr, %struct.anon }
%struct.anon = type { i8, ptr, ptr, ptr, i8 }
%struct._packet_info = type { ptr, ptr, i32, i32, %struct.nstime_t, %struct.nstime_t, %struct.nstime_t, i8, ptr, ptr, ptr, ptr, %struct._address, %struct._address, %struct._address, %struct._address, %struct._address, %struct._address, i32, ptr, i8, [3 x i8], %struct.anon.0, i32, i32, i32, i32, ptr, i8, ptr, ptr, i16, i16, i32, i32, i16, i32, i32, ptr, ptr, ptr, i8, i8, i16, i16, i16, i32, i16, i16, ptr, ptr, ptr, ptr, ptr, i32, i32 }
%struct.nstime_t = type { i64, i32 }
%struct._address = type { i32, i32, ptr, ptr }
%struct.anon.0 = type { i8, [3 x i8] }
%struct._header_field_info = type { ptr, ptr, i32, i32, ptr, i64, ptr, i32, i32, i32, i32, ptr }

@.str = private unnamed_addr constant [7 x i8] c"%s(%d)\00", align 1
@.str.1 = private unnamed_addr constant [11 x i8] c"Unknown:%u\00", align 1
@.str.2 = private unnamed_addr constant [3 x i8] c"%d\00", align 1
@.str.5 = private unnamed_addr constant [26 x i8] c"Invalid hf->display value\00", align 1
@.str.6 = private unnamed_addr constant [7 x i8] c" %s:%s\00", align 1
@.str.7 = private unnamed_addr constant [11 x i8] c"%s(0x%04x)\00", align 1
@.str.8 = private unnamed_addr constant [7 x i8] c"0x%04x\00", align 1

; Function Attrs: null_pointer_is_valid sspstrong uwtable
define hidden i32 @PIDL_dissect_uint16_val(ptr noundef %0, i32 noundef %1, ptr noundef %2, ptr noundef %3, ptr noundef %4, ptr noundef %5, i32 noundef %6, i32 noundef %7, ptr noundef %8) #0 {
  %10 = alloca i32, align 4
  %11 = alloca ptr, align 8
  %12 = alloca i32, align 4
  %13 = alloca ptr, align 8
  %14 = alloca ptr, align 8
  %15 = alloca ptr, align 8
  %16 = alloca ptr, align 8
  %17 = alloca i32, align 4
  %18 = alloca i32, align 4
  %19 = alloca ptr, align 8
  %20 = alloca i16, align 2
  %21 = alloca i32, align 4
  %22 = alloca ptr, align 8
  %23 = alloca ptr, align 8
  store ptr %0, ptr %11, align 8
  store i32 %1, ptr %12, align 4
  store ptr %2, ptr %13, align 8
  store ptr %3, ptr %14, align 8
  store ptr %4, ptr %15, align 8
  store ptr %5, ptr %16, align 8
  store i32 %6, ptr %17, align 4
  store i32 %7, ptr %18, align 4
  store ptr %8, ptr %19, align 8
  call void @llvm.lifetime.start.p0(i64 2, ptr %20) #9
  %24 = load ptr, ptr %15, align 8
  %25 = getelementptr inbounds nuw %struct._dcerpc_info, ptr %24, i32 0, i32 4
  %26 = load i8, ptr %25, align 1, !range !6, !noundef !7
  %27 = trunc i8 %26 to i1
  br i1 %27, label %28, label %30

28:                                               ; preds = %9
  %29 = load i32, ptr %12, align 4
  store i32 %29, ptr %10, align 4
  store i32 1, ptr %21, align 4
  br label %134

30:                                               ; preds = %9
  %31 = load ptr, ptr %15, align 8
  %32 = getelementptr inbounds nuw %struct._dcerpc_info, ptr %31, i32 0, i32 5
  %33 = load i8, ptr %32, align 2, !range !6, !noundef !7
  %34 = trunc i8 %33 to i1
  br i1 %34, label %42, label %35

35:                                               ; preds = %30
  %36 = load i32, ptr %12, align 4
  %37 = srem i32 %36, 2
  %38 = icmp ne i32 %37, 0
  br i1 %38, label %39, label %42

39:                                               ; preds = %35
  %40 = load i32, ptr %12, align 4
  %41 = add i32 %40, 1
  store i32 %41, ptr %12, align 4
  br label %42

42:                                               ; preds = %39, %35, %30
  %43 = load ptr, ptr %11, align 8
  %44 = load i32, ptr %12, align 4
  %45 = load ptr, ptr %13, align 8
  %46 = load ptr, ptr %14, align 8
  %47 = load ptr, ptr %16, align 8
  %48 = load i32, ptr %17, align 4
  %49 = call i32 @dissect_dcerpc_uint16(ptr noundef %43, i32 noundef %44, ptr noundef %45, ptr noundef %46, ptr noundef %47, i32 noundef %48, ptr noundef %20)
  store i32 %49, ptr %12, align 4
  %50 = load i32, ptr %18, align 4
  %51 = and i32 %50, 268435456
  %52 = icmp ne i32 %51, 0
  br i1 %52, label %53, label %126

53:                                               ; preds = %42
  call void @llvm.lifetime.start.p0(i64 8, ptr %22) #9
  call void @llvm.lifetime.start.p0(i64 8, ptr %23) #9
  %54 = load i32, ptr %17, align 4
  %55 = call ptr @proto_registrar_get_nth(i32 noundef %54)
  store ptr %55, ptr %22, align 8
  %56 = load ptr, ptr %13, align 8
  %57 = getelementptr inbounds nuw %struct._packet_info, ptr %56, i32 0, i32 51
  %58 = load ptr, ptr %57, align 8
  %59 = call noalias ptr @wmem_alloc(ptr noundef %58, i64 noundef 64) #10
  store ptr %59, ptr %23, align 8
  %60 = load ptr, ptr %23, align 8
  %61 = getelementptr i8, ptr %60, i64 0
  store i8 0, ptr %61, align 1
  %62 = load ptr, ptr %22, align 8
  %63 = getelementptr inbounds nuw %struct._header_field_info, ptr %62, i32 0, i32 3
  %64 = load i32, ptr %63, align 4
  switch i32 %64, label %117 [
    i32 1, label %65
    i32 2, label %91
  ]

65:                                               ; preds = %53
  %66 = load ptr, ptr %22, align 8
  %67 = getelementptr inbounds nuw %struct._header_field_info, ptr %66, i32 0, i32 4
  %68 = load ptr, ptr %67, align 8
  %69 = icmp ne ptr %68, null
  br i1 %69, label %70, label %83

70:                                               ; preds = %65
  %71 = load ptr, ptr %23, align 8
  %72 = load ptr, ptr %23, align 8
  %73 = call i64 @llvm.objectsize.i64.p0(ptr %72, i1 false, i1 true, i1 true)
  %74 = load i16, ptr %20, align 2
  %75 = zext i16 %74 to i32
  %76 = load ptr, ptr %22, align 8
  %77 = getelementptr inbounds nuw %struct._header_field_info, ptr %76, i32 0, i32 4
  %78 = load ptr, ptr %77, align 8
  %79 = call ptr @val_to_str(i32 noundef %75, ptr noundef %78, ptr noundef @.str.1)
  %80 = load i16, ptr %20, align 2
  %81 = zext i16 %80 to i32
  %82 = call i32 (ptr, i64, i32, i64, ptr, ...) @__snprintf_chk(ptr noundef %71, i64 noundef 64, i32 noundef 2, i64 noundef %73, ptr noundef @.str, ptr noundef %79, i32 noundef %81)
  br label %90

83:                                               ; preds = %65
  %84 = load ptr, ptr %23, align 8
  %85 = load ptr, ptr %23, align 8
  %86 = call i64 @llvm.objectsize.i64.p0(ptr %85, i1 false, i1 true, i1 true)
  %87 = load i16, ptr %20, align 2
  %88 = zext i16 %87 to i32
  %89 = call i32 (ptr, i64, i32, i64, ptr, ...) @__snprintf_chk(ptr noundef %84, i64 noundef 64, i32 noundef 2, i64 noundef %86, ptr noundef @.str.2, i32 noundef %88)
  br label %90

90:                                               ; preds = %83, %70
  br label %118

91:                                               ; preds = %53
  %92 = load ptr, ptr %22, align 8
  %93 = getelementptr inbounds nuw %struct._header_field_info, ptr %92, i32 0, i32 4
  %94 = load ptr, ptr %93, align 8
  %95 = icmp ne ptr %94, null
  br i1 %95, label %96, label %109

96:                                               ; preds = %91
  %97 = load ptr, ptr %23, align 8
  %98 = load ptr, ptr %23, align 8
  %99 = call i64 @llvm.objectsize.i64.p0(ptr %98, i1 false, i1 true, i1 true)
  %100 = load i16, ptr %20, align 2
  %101 = zext i16 %100 to i32
  %102 = load ptr, ptr %22, align 8
  %103 = getelementptr inbounds nuw %struct._header_field_info, ptr %102, i32 0, i32 4
  %104 = load ptr, ptr %103, align 8
  %105 = call ptr @val_to_str(i32 noundef %101, ptr noundef %104, ptr noundef @.str.1)
  %106 = load i16, ptr %20, align 2
  %107 = zext i16 %106 to i32
  %108 = call i32 (ptr, i64, i32, i64, ptr, ...) @__snprintf_chk(ptr noundef %97, i64 noundef 64, i32 noundef 2, i64 noundef %99, ptr noundef @.str.7, ptr noundef %105, i32 noundef %107)
  br label %116

109:                                              ; preds = %91
  %110 = load ptr, ptr %23, align 8
  %111 = load ptr, ptr %23, align 8
  %112 = call i64 @llvm.objectsize.i64.p0(ptr %111, i1 false, i1 true, i1 true)
  %113 = load i16, ptr %20, align 2
  %114 = zext i16 %113 to i32
  %115 = call i32 (ptr, i64, i32, i64, ptr, ...) @__snprintf_chk(ptr noundef %110, i64 noundef 64, i32 noundef 2, i64 noundef %112, ptr noundef @.str.8, i32 noundef %114)
  br label %116

116:                                              ; preds = %109, %96
  br label %118

117:                                              ; preds = %53
  call void (ptr, ...) @proto_report_dissector_bug(ptr noundef @.str.5) #11
  unreachable

118:                                              ; preds = %116, %90
  %119 = load ptr, ptr %13, align 8
  %120 = getelementptr inbounds nuw %struct._packet_info, ptr %119, i32 0, i32 1
  %121 = load ptr, ptr %120, align 8
  %122 = load ptr, ptr %22, align 8
  %123 = getelementptr inbounds nuw %struct._header_field_info, ptr %122, i32 0, i32 0
  %124 = load ptr, ptr %123, align 8
  %125 = load ptr, ptr %23, align 8
  call void (ptr, i32, ptr, ...) @col_append_fstr(ptr noundef %121, i32 noundef 25, ptr noundef @.str.6, ptr noundef %124, ptr noundef %125)
  call void @llvm.lifetime.end.p0(i64 8, ptr %23) #9
  call void @llvm.lifetime.end.p0(i64 8, ptr %22) #9
  br label %126

126:                                              ; preds = %118, %42
  %127 = load ptr, ptr %19, align 8
  %128 = icmp ne ptr %127, null
  br i1 %128, label %129, label %132

129:                                              ; preds = %126
  %130 = load i16, ptr %20, align 2
  %131 = load ptr, ptr %19, align 8
  store i16 %130, ptr %131, align 2
  br label %132

132:                                              ; preds = %129, %126
  %133 = load i32, ptr %12, align 4
  store i32 %133, ptr %10, align 4
  store i32 1, ptr %21, align 4
  br label %134

134:                                              ; preds = %132, %28
  call void @llvm.lifetime.end.p0(i64 2, ptr %20) #9
  %135 = load i32, ptr %10, align 4
  ret i32 %135
}