; Function Attrs: null_pointer_is_valid sspstrong uwtable
define hidden i32 @PIDL_dissect_uint16_val(ptr noundef %0, i32 noundef %1, ptr noundef %2, ptr noundef %3, ptr noundef readonly captures(none) %4, ptr noundef %5, i32 noundef %6, i32 noundef %7, ptr noundef writeonly captures(address_is_null) %8) local_unnamed_addr #0 {
  %10 = alloca i16, align 2
  call void @llvm.lifetime.start.p0(i64 2, ptr nonnull %10) #8
  %11 = getelementptr inbounds nuw i8, ptr %4, i64 25
  %12 = load i8, ptr %11, align 1, !range !6, !noundef !7
  %13 = trunc nuw i8 %12 to i1
  br i1 %13, label %61, label %14

14:                                               ; preds = %9
  %15 = getelementptr inbounds nuw i8, ptr %4, i64 26
  %16 = load i8, ptr %15, align 2, !range !6, !noundef !7
  %17 = trunc nuw i8 %16 to i1
  %18 = and i32 %1, 1
  %.not = icmp eq i32 %18, 0
  %or.cond = or i1 %.not, %17
  %not.or.cond = xor i1 %or.cond, true
  %19 = zext i1 %not.or.cond to i32
  %.034 = add i32 %1, %19
  %20 = call i32 @dissect_dcerpc_uint16(ptr noundef %0, i32 noundef %.034, ptr noundef %2, ptr noundef %3, ptr noundef %5, i32 noundef %6, ptr noundef nonnull %10)
  %21 = and i32 %7, 268435456
  %.not38 = icmp eq i32 %21, 0
  br i1 %.not38, label %58, label %22

22:                                               ; preds = %14
  %23 = call ptr @proto_registrar_get_nth(i32 noundef %6)
  %24 = getelementptr inbounds nuw i8, ptr %2, i64 408
  %25 = load ptr, ptr %24, align 8
  %26 = call noalias dereferenceable_or_null(64) ptr @wmem_alloc(ptr noundef %25, i64 noundef 64) #9
  store i8 0, ptr %26, align 1
  %27 = getelementptr inbounds nuw i8, ptr %23, i64 20
  %28 = load i32, ptr %27, align 4
  switch i32 %28, label %53 [
    i32 1, label %29
    i32 2, label %41
  ]

29:                                               ; preds = %22
  %30 = getelementptr inbounds nuw i8, ptr %23, i64 24
  %31 = load ptr, ptr %30, align 8
  %.not40 = icmp eq ptr %31, null
  %32 = load i16, ptr %10, align 2
  %33 = zext i16 %32 to i32
  br i1 %.not40, label %39, label %34

34:                                               ; preds = %29
  %35 = call ptr @val_to_str(i32 noundef %33, ptr noundef nonnull %31, ptr noundef nonnull @.str.1)
  %36 = load i16, ptr %10, align 2
  %37 = zext i16 %36 to i32
  %38 = call i32 (ptr, i64, i32, i64, ptr, ...) @__snprintf_chk(ptr noundef %26, i64 noundef 64, i32 noundef 2, i64 noundef 64, ptr noundef nonnull @.str, ptr noundef %35, i32 noundef %37)
  br label %54

39:                                               ; preds = %29
  %40 = call i32 (ptr, i64, i32, i64, ptr, ...) @__snprintf_chk(ptr noundef %26, i64 noundef 64, i32 noundef 2, i64 noundef 64, ptr noundef nonnull @.str.2, i32 noundef %33)
  br label %54

41:                                               ; preds = %22
  %42 = getelementptr inbounds nuw i8, ptr %23, i64 24
  %43 = load ptr, ptr %42, align 8
  %.not39 = icmp eq ptr %43, null
  %44 = load i16, ptr %10, align 2
  %45 = zext i16 %44 to i32
  br i1 %.not39, label %51, label %46

46:                                               ; preds = %41
  %47 = call ptr @val_to_str(i32 noundef %45, ptr noundef nonnull %43, ptr noundef nonnull @.str.1)
  %48 = load i16, ptr %10, align 2
  %49 = zext i16 %48 to i32
  %50 = call i32 (ptr, i64, i32, i64, ptr, ...) @__snprintf_chk(ptr noundef %26, i64 noundef 64, i32 noundef 2, i64 noundef 64, ptr noundef nonnull @.str.7, ptr noundef %47, i32 noundef %49)
  br label %54

51:                                               ; preds = %41
  %52 = call i32 (ptr, i64, i32, i64, ptr, ...) @__snprintf_chk(ptr noundef %26, i64 noundef 64, i32 noundef 2, i64 noundef 64, ptr noundef nonnull @.str.8, i32 noundef %45)
  br label %54

53:                                               ; preds = %22
  call void (ptr, ...) @proto_report_dissector_bug(ptr noundef nonnull @.str.5) #10
  unreachable

54:                                               ; preds = %46, %51, %34, %39
  %55 = getelementptr inbounds nuw i8, ptr %2, i64 8
  %56 = load ptr, ptr %55, align 8
  %57 = load ptr, ptr %23, align 8
  call void (ptr, i32, ptr, ...) @col_append_fstr(ptr noundef %56, i32 noundef 25, ptr noundef nonnull @.str.6, ptr noundef %57, ptr noundef %26)
  br label %58

58:                                               ; preds = %54, %14
  %.not41 = icmp eq ptr %8, null
  br i1 %.not41, label %61, label %59

59:                                               ; preds = %58
  %60 = load i16, ptr %10, align 2
  store i16 %60, ptr %8, align 2
  br label %61

61:                                               ; preds = %58, %59, %9
  %.0 = phi i32 [ %1, %9 ], [ %20, %59 ], [ %20, %58 ]
  call void @llvm.lifetime.end.p0(i64 2, ptr nonnull %10) #8
  ret i32 %.0
}